target datalayout = "e-m:e-p270:32:32-p271:32:32-p272:64:64-i64:64-i128:128-f80:128-n8:16:32:64-S128"
target triple = "x86_64-pc-linux-gnu"

%struct._zend_compiler_globals = type { %struct._zend_stack, ptr, ptr, i32, ptr, ptr, ptr, ptr, i8, i8, i8, i8, i8, %struct._zend_llist, ptr, i8, i8, i8, i8, ptr, i32, i32, %struct._zend_oparray_context, %struct._zend_file_context, ptr, %struct._zend_array, ptr, i64, i8, i8, i8, ptr, ptr, %struct._zend_stack, ptr, i32, ptr, ptr, i64, i64, ptr, ptr, ptr, ptr, i32, %struct._zend_stack }
%struct._zend_llist = type { ptr, ptr, i64, i64, ptr, i8, ptr }
%struct._zend_oparray_context = type { i32, i32, i32, i32, i32, i32, i32, ptr, ptr, i8 }
%struct._zend_file_context = type { %struct._zend_declarables, ptr, i8, i8, ptr, ptr, ptr, %struct._zend_array }
%struct._zend_declarables = type { i64 }
%struct._zend_array = type { %struct._zend_refcounted_h, %union.anon.4, i32, %union.anon.6, i32, i32, i32, i32, i64, ptr }
%struct._zend_refcounted_h = type { i32, %union.anon }
%union.anon = type { i32 }
%union.anon.4 = type { i32 }
%union.anon.6 = type { ptr }
%struct._zend_stack = type { i32, i32, i32, ptr }

@zend_post_startup_cb = global ptr null, align 8
@compiler_globals = external global %struct._zend_compiler_globals, align 8
@startup_done = internal global i8 0, align 1
@global_map_ptr_last = internal global i64 0, align 8

; Function Attrs: nounwind uwtable
define hidden i32 @zend_post_startup() #0 {
  %1 = alloca i32, align 4
  %2 = alloca ptr, align 8
  store i8 1, ptr @startup_done, align 1
  %3 = load ptr, ptr @zend_post_startup_cb, align 8
  %4 = icmp ne ptr %3, null
  br i1 %4, label %5, label %12

5:                                                ; preds = %0
  %6 = load ptr, ptr @zend_post_startup_cb, align 8
  store ptr %6, ptr %2, align 8
  store ptr null, ptr @zend_post_startup_cb, align 8
  %7 = load ptr, ptr %2, align 8
  %8 = call i32 %7()
  %9 = icmp ne i32 %8, 0
  br i1 %9, label %10, label %11

10:                                               ; preds = %5
  store i32 -1, ptr %1, align 4
  br label %14

11:                                               ; preds = %5
  br label %12

12:                                               ; preds = %11, %0
  %13 = load i64, ptr getelementptr inbounds (%struct._zend_compiler_globals, ptr @compiler_globals, i32 0, i32 39), align 8
  store i64 %13, ptr @global_map_ptr_last, align 8
  call void @zend_call_stack_init()
  store i32 0, ptr %1, align 4
  br label %14

14:                                               ; preds = %12, %10
  %15 = load i32, ptr %1, align 4
  ret i32 %15
}