; Function Attrs: nounwind uwtable
define hidden noundef i32 @zend_post_startup() local_unnamed_addr #0 {
  store i1 true, ptr @startup_done, align 1
  %1 = load ptr, ptr @zend_post_startup_cb, align 8
  %.not = icmp eq ptr %1, null
  br i1 %.not, label %4, label %2

2:                                                ; preds = %0
  store ptr null, ptr @zend_post_startup_cb, align 8
  %3 = tail call i32 %1() #30
  %.not2 = icmp eq i32 %3, 0
  br i1 %.not2, label %4, label %6

4:                                                ; preds = %2, %0
  %5 = load i64, ptr getelementptr inbounds (%struct._zend_compiler_globals, ptr @compiler_globals, i64 0, i32 39), align 8
  store i64 %5, ptr @global_map_ptr_last, align 8
  tail call void @zend_call_stack_init() #30
  br label %6

6:                                                ; preds = %2, %4
  %.0 = phi i32 [ 0, %4 ], [ -1, %2 ]
  ret i32 %.0
}